target datalayout = "e-m:e-p270:32:32-p271:32:32-p272:64:64-i64:64-i128:128-f80:128-n8:16:32:64-S128"
target triple = "x86_64-pc-linux-gnu"

%struct.pg_regex_t = type { i32, i64, i64, i32, ptr, i32, ptr, ptr }
%struct.guts = type { i32, i32, i64, i64, ptr, %struct.cnfa, i32, %struct.colormap, ptr, ptr, i32 }
%struct.cnfa = type { i32, i32, i32, i32, i32, [2 x i16], [2 x i16], ptr, ptr, ptr, i32, i32 }
%struct.colormap = type { i32, ptr, i64, i64, i16, ptr, ptr, [14 x i32], i32, ptr, ptr, i32, i32, i32, [10 x %struct.colordesc] }
%struct.colordesc = type { i32, i32, i16, ptr, i32, i32 }

; Function Attrs: nounwind uwtable
define dso_local void @pg_reg_getcharacters(ptr noundef %0, i32 noundef %1, ptr noundef %2, i32 noundef %3) #0 {
  %5 = alloca ptr, align 8
  %6 = alloca i32, align 4
  %7 = alloca ptr, align 8
  %8 = alloca i32, align 4
  %9 = alloca ptr, align 8
  %10 = alloca i32, align 4
  %11 = alloca i32, align 4
  store ptr %0, ptr %5, align 8
  store i32 %1, ptr %6, align 4
  store ptr %2, ptr %7, align 8
  store i32 %3, ptr %8, align 4
  call void @llvm.lifetime.start.p0(i64 8, ptr %9) #3
  call void @llvm.lifetime.start.p0(i64 4, ptr %10) #3
  %12 = load ptr, ptr %5, align 8
  %13 = getelementptr inbounds nuw %struct.pg_regex_t, ptr %12, i32 0, i32 6
  %14 = load ptr, ptr %13, align 8
  %15 = getelementptr inbounds nuw %struct.guts, ptr %14, i32 0, i32 7
  store ptr %15, ptr %9, align 8
  %16 = load i32, ptr %6, align 4
  %17 = icmp sle i32 %16, 0
  br i1 %17, label %28, label %18

18:                                               ; preds = %4
  %19 = load i32, ptr %6, align 4
  %20 = sext i32 %19 to i64
  %21 = load ptr, ptr %9, align 8
  %22 = getelementptr inbounds nuw %struct.colormap, ptr %21, i32 0, i32 3
  %23 = load i64, ptr %22, align 8
  %24 = icmp ugt i64 %20, %23
  br i1 %24, label %28, label %25

25:                                               ; preds = %18
  %26 = load i32, ptr %8, align 4
  %27 = icmp sle i32 %26, 0
  br i1 %27, label %28, label %29

28:                                               ; preds = %25, %18, %4
  store i32 1, ptr %11, align 4
  br label %71

29:                                               ; preds = %25
  %30 = load ptr, ptr %9, align 8
  %31 = getelementptr inbounds nuw %struct.colormap, ptr %30, i32 0, i32 5
  %32 = load ptr, ptr %31, align 8
  %33 = load i32, ptr %6, align 4
  %34 = sext i32 %33 to i64
  %35 = getelementptr inbounds %struct.colordesc, ptr %32, i64 %34
  %36 = getelementptr inbounds nuw %struct.colordesc, ptr %35, i32 0, i32 5
  %37 = load i32, ptr %36, align 4
  %38 = and i32 %37, 2
  %39 = icmp ne i32 %38, 0
  br i1 %39, label %40, label %41

40:                                               ; preds = %29
  store i32 1, ptr %11, align 4
  br label %71

41:                                               ; preds = %29
  store i32 0, ptr %10, align 4
  br label %42

42:                                               ; preds = %67, %41
  %43 = load i32, ptr %10, align 4
  %44 = icmp ule i32 %43, 2047
  br i1 %44, label %45, label %70

45:                                               ; preds = %42
  %46 = load ptr, ptr %9, align 8
  %47 = getelementptr inbounds nuw %struct.colormap, ptr %46, i32 0, i32 6
  %48 = load ptr, ptr %47, align 8
  %49 = load i32, ptr %10, align 4
  %50 = sub i32 %49, 0
  %51 = zext i32 %50 to i64
  %52 = getelementptr inbounds nuw i16, ptr %48, i64 %51
  %53 = load i16, ptr %52, align 2
  %54 = sext i16 %53 to i32
  %55 = load i32, ptr %6, align 4
  %56 = icmp eq i32 %54, %55
  br i1 %56, label %57, label %66

57:                                               ; preds = %45
  %58 = load i32, ptr %10, align 4
  %59 = load ptr, ptr %7, align 8
  %60 = getelementptr inbounds nuw i32, ptr %59, i32 1
  store ptr %60, ptr %7, align 8
  store i32 %58, ptr %59, align 4
  %61 = load i32, ptr %8, align 4
  %62 = add i32 %61, -1
  store i32 %62, ptr %8, align 4
  %63 = icmp eq i32 %62, 0
  br i1 %63, label %64, label %65

64:                                               ; preds = %57
  br label %70

65:                                               ; preds = %57
  br label %66

66:                                               ; preds = %65, %45
  br label %67

67:                                               ; preds = %66
  %68 = load i32, ptr %10, align 4
  %69 = add i32 %68, 1
  store i32 %69, ptr %10, align 4
  br label %42, !llvm.loop !6

70:                                               ; preds = %64, %42
  store i32 0, ptr %11, align 4
  br label %71

71:                                               ; preds = %70, %40, %28
  call void @llvm.lifetime.end.p0(i64 4, ptr %10) #3
  call void @llvm.lifetime.end.p0(i64 8, ptr %9) #3
  %72 = load i32, ptr %11, align 4
  switch i32 %72, label %74 [
    i32 0, label %73
    i32 1, label %73
  ]

73:                                               ; preds = %71, %71
  ret void

74:                                               ; preds = %71
  unreachable
}