; Function Attrs: nofree norecurse nosync nounwind memory(read, argmem: readwrite, inaccessiblemem: none) uwtable
define dso_local void @pg_reg_getcharacters(ptr noundef readonly captures(none) %0, i32 noundef %1, ptr noundef writeonly captures(none) %2, i32 noundef %3) local_unnamed_addr #3 {
  %5 = getelementptr inbounds nuw i8, ptr %0, i64 48
  %6 = load ptr, ptr %5, align 8
  %7 = icmp slt i32 %1, 1
  br i1 %7, label %.loopexit, label %8

8:                                                ; preds = %4
  %9 = zext nneg i32 %1 to i64
  %10 = getelementptr inbounds nuw i8, ptr %6, i64 128
  %11 = load i64, ptr %10, align 8
  %12 = icmp ult i64 %11, %9
  %13 = icmp slt i32 %3, 1
  %or.cond = or i1 %13, %12
  br i1 %or.cond, label %.loopexit, label %14

14:                                               ; preds = %8
  %15 = getelementptr inbounds nuw i8, ptr %6, i64 144
  %16 = load ptr, ptr %15, align 8
  %17 = getelementptr inbounds nuw %struct.colordesc, ptr %16, i64 %9, i32 5
  %18 = load i32, ptr %17, align 4
  %19 = and i32 %18, 2
  %.not = icmp eq i32 %19, 0
  br i1 %.not, label %.preheader, label %.loopexit

.preheader:                                       ; preds = %14
  %20 = getelementptr inbounds nuw i8, ptr %6, i64 152
  br label %21

21:                                               ; preds = %.preheader, %32
  %indvars.iv = phi i64 [ 0, %.preheader ], [ %indvars.iv.next, %32 ]
  %.01523 = phi ptr [ %2, %.preheader ], [ %.1, %32 ]
  %.01622 = phi i32 [ %3, %.preheader ], [ %.117, %32 ]
  %22 = load ptr, ptr %20, align 8
  %23 = getelementptr inbounds nuw i16, ptr %22, i64 %indvars.iv
  %24 = load i16, ptr %23, align 2
  %25 = sext i16 %24 to i32
  %26 = icmp eq i32 %1, %25
  br i1 %26, label %27, label %32

27:                                               ; preds = %21
  %28 = getelementptr inbounds nuw i8, ptr %.01523, i64 4
  %29 = trunc nuw nsw i64 %indvars.iv to i32
  store i32 %29, ptr %.01523, align 4
  %30 = add nsw i32 %.01622, -1
  %31 = icmp eq i32 %30, 0
  br i1 %31, label %.loopexit, label %32

32:                                               ; preds = %21, %27
  %.117 = phi i32 [ %30, %27 ], [ %.01622, %21 ]
  %.1 = phi ptr [ %28, %27 ], [ %.01523, %21 ]
  %indvars.iv.next = add nuw nsw i64 %indvars.iv, 1
  %exitcond.not = icmp eq i64 %indvars.iv.next, 2048
  br i1 %exitcond.not, label %.loopexit, label %21, !llvm.loop !6

.loopexit:                                        ; preds = %32, %27, %14, %4, %8
  ret void
}